target datalayout = "e-m:e-p270:32:32-p271:32:32-p272:64:64-i64:64-i128:128-f80:128-n8:16:32:64-S128"
target triple = "x86_64-pc-linux-gnu"

%struct.expert_field = type { i32, i32 }

@hf_gtpv2_mbms_session_duration_days = internal global i32 0, align 4
@hf_gtpv2_mbms_session_duration_secs = internal global i32 0, align 4
@.str.16 = private unnamed_addr constant [23 x i8] c"Indefinite (always-on)\00", align 1
@.str.17 = private unnamed_addr constant [42 x i8] c"%d days %02d:%02d:%02d (DD days HH:MM:SS)\00", align 1
@ei_gtpv2_mbms_session_duration_days = internal global %struct.expert_field zeroinitializer, align 4
@ei_gtpv2_mbms_session_duration_secs = internal global %struct.expert_field zeroinitializer, align 4
@hf_gtpv2_spare_bytes = internal global i32 0, align 4

; Function Attrs: null_pointer_is_valid sspstrong uwtable
define hidden void @dissect_gtpv2_mbms_session_duration(ptr noundef %0, ptr noundef %1, ptr noundef %2, ptr noundef %3, i16 noundef zeroext %4, i8 noundef zeroext %5, i8 noundef zeroext %6, ptr noundef %7) #1 {
  %9 = alloca ptr, align 8
  %10 = alloca ptr, align 8
  %11 = alloca ptr, align 8
  %12 = alloca ptr, align 8
  %13 = alloca i16, align 2
  %14 = alloca i8, align 1
  %15 = alloca i8, align 1
  %16 = alloca ptr, align 8
  %17 = alloca i32, align 4
  %18 = alloca i32, align 4
  %19 = alloca i32, align 4
  %20 = alloca i32, align 4
  %21 = alloca i32, align 4
  %22 = alloca i32, align 4
  %23 = alloca i32, align 4
  %24 = alloca ptr, align 8
  %25 = alloca ptr, align 8
  store ptr %0, ptr %9, align 8
  store ptr %1, ptr %10, align 8
  store ptr %2, ptr %11, align 8
  store ptr %3, ptr %12, align 8
  store i16 %4, ptr %13, align 2
  store i8 %5, ptr %14, align 1
  store i8 %6, ptr %15, align 1
  store ptr %7, ptr %16, align 8
  call void @llvm.lifetime.start.p0(i64 4, ptr %17) #11
  store i32 0, ptr %17, align 4
  call void @llvm.lifetime.start.p0(i64 4, ptr %18) #11
  store i32 0, ptr %18, align 4
  call void @llvm.lifetime.start.p0(i64 4, ptr %19) #11
  call void @llvm.lifetime.start.p0(i64 4, ptr %20) #11
  call void @llvm.lifetime.start.p0(i64 4, ptr %21) #11
  call void @llvm.lifetime.start.p0(i64 4, ptr %22) #11
  call void @llvm.lifetime.start.p0(i64 4, ptr %23) #11
  call void @llvm.lifetime.start.p0(i64 8, ptr %24) #11
  call void @llvm.lifetime.start.p0(i64 8, ptr %25) #11
  %26 = load ptr, ptr %9, align 8
  %27 = load i32, ptr %18, align 4
  %28 = call i32 @tvb_get_bits32(ptr noundef %26, i32 noundef %27, i32 noundef 17, i32 noundef 0)
  store i32 %28, ptr %23, align 4
  %29 = load i32, ptr %18, align 4
  %30 = add i32 %29, 17
  store i32 %30, ptr %18, align 4
  %31 = load ptr, ptr %9, align 8
  %32 = load i32, ptr %18, align 4
  %33 = call i32 @tvb_get_bits32(ptr noundef %31, i32 noundef %32, i32 noundef 7, i32 noundef 0)
  store i32 %33, ptr %19, align 4
  %34 = load i32, ptr %23, align 4
  %35 = icmp eq i32 %34, 0
  br i1 %35, label %36, label %51

36:                                               ; preds = %8
  %37 = load i32, ptr %19, align 4
  %38 = icmp eq i32 %37, 0
  br i1 %38, label %39, label %51

39:                                               ; preds = %36
  %40 = load ptr, ptr %11, align 8
  %41 = load i32, ptr @hf_gtpv2_mbms_session_duration_days, align 4
  %42 = load ptr, ptr %9, align 8
  %43 = load i32, ptr %17, align 4
  %44 = call ptr @proto_tree_add_item(ptr noundef %40, i32 noundef %41, ptr noundef %42, i32 noundef %43, i32 noundef 3, i32 noundef 0)
  store ptr %44, ptr %24, align 8
  %45 = load ptr, ptr %11, align 8
  %46 = load i32, ptr @hf_gtpv2_mbms_session_duration_secs, align 4
  %47 = load ptr, ptr %9, align 8
  %48 = load i32, ptr %17, align 4
  %49 = call ptr @proto_tree_add_item(ptr noundef %45, i32 noundef %46, ptr noundef %47, i32 noundef %48, i32 noundef 3, i32 noundef 0)
  store ptr %49, ptr %25, align 8
  %50 = load ptr, ptr %12, align 8
  call void (ptr, ptr, ...) @proto_item_append_text(ptr noundef %50, ptr noundef @.str.16)
  br label %75

51:                                               ; preds = %36, %8
  %52 = load i32, ptr %23, align 4
  %53 = udiv i32 %52, 3600
  store i32 %53, ptr %20, align 4
  %54 = load i32, ptr %23, align 4
  %55 = urem i32 %54, 3600
  %56 = udiv i32 %55, 60
  store i32 %56, ptr %21, align 4
  %57 = load i32, ptr %23, align 4
  %58 = urem i32 %57, 3600
  %59 = urem i32 %58, 60
  store i32 %59, ptr %22, align 4
  %60 = load ptr, ptr %11, align 8
  %61 = load i32, ptr @hf_gtpv2_mbms_session_duration_days, align 4
  %62 = load ptr, ptr %9, align 8
  %63 = load i32, ptr %17, align 4
  %64 = call ptr @proto_tree_add_item(ptr noundef %60, i32 noundef %61, ptr noundef %62, i32 noundef %63, i32 noundef 3, i32 noundef 0)
  store ptr %64, ptr %24, align 8
  %65 = load ptr, ptr %11, align 8
  %66 = load i32, ptr @hf_gtpv2_mbms_session_duration_secs, align 4
  %67 = load ptr, ptr %9, align 8
  %68 = load i32, ptr %17, align 4
  %69 = call ptr @proto_tree_add_item(ptr noundef %65, i32 noundef %66, ptr noundef %67, i32 noundef %68, i32 noundef 3, i32 noundef 0)
  store ptr %69, ptr %25, align 8
  %70 = load ptr, ptr %12, align 8
  %71 = load i32, ptr %19, align 4
  %72 = load i32, ptr %20, align 4
  %73 = load i32, ptr %21, align 4
  %74 = load i32, ptr %22, align 4
  call void (ptr, ptr, ...) @proto_item_append_text(ptr noundef %70, ptr noundef @.str.17, i32 noundef %71, i32 noundef %72, i32 noundef %73, i32 noundef %74)
  br label %75

75:                                               ; preds = %51, %39
  %76 = load i32, ptr %19, align 4
  %77 = icmp ugt i32 %76, 18
  br i1 %77, label %78, label %82

78:                                               ; preds = %75
  %79 = load ptr, ptr %10, align 8
  %80 = load ptr, ptr %24, align 8
  %81 = call ptr @expert_add_info(ptr noundef %79, ptr noundef %80, ptr noundef @ei_gtpv2_mbms_session_duration_days)
  br label %82

82:                                               ; preds = %78, %75
  %83 = load i32, ptr %23, align 4
  %84 = icmp ugt i32 %83, 86400
  br i1 %84, label %85, label %89

85:                                               ; preds = %82
  %86 = load ptr, ptr %10, align 8
  %87 = load ptr, ptr %25, align 8
  %88 = call ptr @expert_add_info(ptr noundef %86, ptr noundef %87, ptr noundef @ei_gtpv2_mbms_session_duration_secs)
  br label %89

89:                                               ; preds = %85, %82
  %90 = load i32, ptr %17, align 4
  %91 = add i32 %90, 3
  store i32 %91, ptr %17, align 4
  %92 = load i16, ptr %13, align 2
  %93 = zext i16 %92 to i32
  %94 = icmp sgt i32 %93, 3
  br i1 %94, label %95, label %104

95:                                               ; preds = %89
  %96 = load ptr, ptr %11, align 8
  %97 = load i32, ptr @hf_gtpv2_spare_bytes, align 4
  %98 = load ptr, ptr %9, align 8
  %99 = load i32, ptr %17, align 4
  %100 = load i16, ptr %13, align 2
  %101 = zext i16 %100 to i32
  %102 = sub i32 %101, 3
  %103 = call ptr @proto_tree_add_item(ptr noundef %96, i32 noundef %97, ptr noundef %98, i32 noundef %99, i32 noundef %102, i32 noundef 0)
  br label %104

104:                                              ; preds = %95, %89
  call void @llvm.lifetime.end.p0(i64 8, ptr %25) #11
  call void @llvm.lifetime.end.p0(i64 8, ptr %24) #11
  call void @llvm.lifetime.end.p0(i64 4, ptr %23) #11
  call void @llvm.lifetime.end.p0(i64 4, ptr %22) #11
  call void @llvm.lifetime.end.p0(i64 4, ptr %21) #11
  call void @llvm.lifetime.end.p0(i64 4, ptr %20) #11
  call void @llvm.lifetime.end.p0(i64 4, ptr %19) #11
  call void @llvm.lifetime.end.p0(i64 4, ptr %18) #11
  call void @llvm.lifetime.end.p0(i64 4, ptr %17) #11
  ret void
}