; Function Attrs: null_pointer_is_valid sspstrong uwtable
define hidden void @dissect_gtpv2_mbms_session_duration(ptr noundef %0, ptr noundef %1, ptr noundef %2, ptr noundef %3, i16 noundef zeroext %4, i8 zeroext %5, i8 zeroext %6, ptr readnone captures(none) %7) #1 {
  %9 = tail call i32 @tvb_get_bits32(ptr noundef %0, i32 noundef 0, i32 noundef 17, i32 noundef 0)
  %10 = tail call i32 @tvb_get_bits32(ptr noundef %0, i32 noundef 17, i32 noundef 7, i32 noundef 0)
  %11 = icmp eq i32 %9, 0
  %12 = icmp eq i32 %10, 0
  %or.cond = select i1 %11, i1 %12, i1 false
  br i1 %or.cond, label %.thread45, label %17

.thread45:                                        ; preds = %8
  %13 = load i32, ptr @hf_gtpv2_mbms_session_duration_days, align 4
  %14 = tail call ptr @proto_tree_add_item(ptr noundef %2, i32 noundef %13, ptr noundef %0, i32 noundef 0, i32 noundef 3, i32 noundef 0)
  %15 = load i32, ptr @hf_gtpv2_mbms_session_duration_secs, align 4
  %16 = tail call ptr @proto_tree_add_item(ptr noundef %2, i32 noundef %15, ptr noundef %0, i32 noundef 0, i32 noundef 3, i32 noundef 0)
  tail call void (ptr, ptr, ...) @proto_item_append_text(ptr noundef %3, ptr noundef nonnull @.str.16)
  br label %33

17:                                               ; preds = %8
  %18 = udiv i32 %9, 3600
  %19 = urem i32 %9, 3600
  %.lhs.trunc = trunc nuw nsw i32 %19 to i16
  %20 = udiv i16 %.lhs.trunc, 60
  %.zext = zext nneg i16 %20 to i32
  %21 = urem i16 %.lhs.trunc, 60
  %.zext48 = zext nneg i16 %21 to i32
  %22 = load i32, ptr @hf_gtpv2_mbms_session_duration_days, align 4
  %23 = tail call ptr @proto_tree_add_item(ptr noundef %2, i32 noundef %22, ptr noundef %0, i32 noundef 0, i32 noundef 3, i32 noundef 0)
  %24 = load i32, ptr @hf_gtpv2_mbms_session_duration_secs, align 4
  %25 = tail call ptr @proto_tree_add_item(ptr noundef %2, i32 noundef %24, ptr noundef %0, i32 noundef 0, i32 noundef 3, i32 noundef 0)
  tail call void (ptr, ptr, ...) @proto_item_append_text(ptr noundef %3, ptr noundef nonnull @.str.17, i32 noundef %10, i32 noundef %18, i32 noundef %.zext, i32 noundef %.zext48)
  %26 = icmp ugt i32 %10, 18
  br i1 %26, label %27, label %29

27:                                               ; preds = %17
  %28 = tail call ptr @expert_add_info(ptr noundef %1, ptr noundef %23, ptr noundef nonnull @ei_gtpv2_mbms_session_duration_days)
  br label %29

29:                                               ; preds = %27, %17
  %30 = icmp ugt i32 %9, 86400
  br i1 %30, label %31, label %33

31:                                               ; preds = %29
  %32 = tail call ptr @expert_add_info(ptr noundef %1, ptr noundef %25, ptr noundef nonnull @ei_gtpv2_mbms_session_duration_secs)
  br label %33

33:                                               ; preds = %.thread45, %31, %29
  %34 = icmp ugt i16 %4, 3
  br i1 %34, label %35, label %40

35:                                               ; preds = %33
  %36 = zext i16 %4 to i32
  %37 = load i32, ptr @hf_gtpv2_spare_bytes, align 4
  %38 = add nsw i32 %36, -3
  %39 = tail call ptr @proto_tree_add_item(ptr noundef %2, i32 noundef %37, ptr noundef %0, i32 noundef 3, i32 noundef %38, i32 noundef 0)
  br label %40

40:                                               ; preds = %35, %33
  ret void
}